; Function Attrs: mustprogress uwtable
define hidden noundef ptr @_ZN7datalog21check_relation_plugin24mk_filter_interpreted_fnERKNS_13relation_baseEP3app(ptr noundef nonnull readonly align 8 captures(none) dereferenceable(56) %0, ptr noundef nonnull readonly align 8 dereferenceable(28) %1, ptr noundef %2) unnamed_addr #3 align 2 personality ptr @__gxx_personality_v0 {
  %4 = alloca %class.obj_ref.44, align 8
  %5 = tail call ptr @__dynamic_cast(ptr nonnull readonly align 8 dereferenceable(28) %1, ptr nonnull @_ZTIN7datalog13relation_baseE, ptr nonnull @_ZTIN7datalog14check_relationE, i64 0) #24
  %6 = icmp eq ptr %5, null
  br i1 %6, label %7, label %_ZN7datalog21check_relation_plugin3getERKNS_13relation_baseE.exit

7:                                                ; preds = %3
  tail call void @__cxa_bad_cast() #27
  unreachable

_ZN7datalog21check_relation_plugin3getERKNS_13relation_baseE.exit: ; preds = %3
  %8 = getelementptr inbounds nuw i8, ptr %0, i64 48
  %9 = load ptr, ptr %8, align 8, !tbaa !384
  %10 = getelementptr inbounds nuw i8, ptr %5, i64 40
  %11 = load ptr, ptr %10, align 8, !tbaa !29
  %12 = load ptr, ptr %9, align 8, !tbaa !3
  %13 = getelementptr inbounds nuw i8, ptr %12, i64 152
  %14 = load ptr, ptr %13, align 8
  %15 = tail call noundef ptr %14(ptr noundef nonnull align 8 dereferenceable(32) %9, ptr noundef nonnull align 8 dereferenceable(28) %11, ptr noundef %2)
  call void @llvm.lifetime.start.p0(i64 16, ptr nonnull %4) #24
  %16 = getelementptr inbounds nuw i8, ptr %0, i64 40
  %17 = load ptr, ptr %16, align 8, !tbaa !43
  store ptr %2, ptr %4, align 8, !tbaa !639
  %18 = getelementptr inbounds nuw i8, ptr %4, i64 8
  store ptr %17, ptr %18, align 8, !tbaa !27
  %.not.i.i = icmp eq ptr %2, null
  br i1 %.not.i.i, label %_ZN7obj_refI3app11ast_managerEC2EPS0_RS1_.exit, label %_ZN7obj_refI3app11ast_managerEC2EPS0_RS1_.exit.thread

_ZN7obj_refI3app11ast_managerEC2EPS0_RS1_.exit:   ; preds = %_ZN7datalog21check_relation_plugin3getERKNS_13relation_baseE.exit
  %.not = icmp eq ptr %15, null
  br i1 %.not, label %_ZN7obj_refI3app11ast_managerED2Ev.exit, label %22

_ZN7obj_refI3app11ast_managerEC2EPS0_RS1_.exit.thread: ; preds = %_ZN7datalog21check_relation_plugin3getERKNS_13relation_baseE.exit
  %19 = getelementptr inbounds nuw i8, ptr %2, i64 8
  %20 = load i32, ptr %19, align 4, !tbaa !37
  %21 = add i32 %20, 1
  store i32 %21, ptr %19, align 4, !tbaa !37
  %.not9 = icmp eq ptr %15, null
  br i1 %.not9, label %_ZN7datalog21check_relation_plugin21filter_interpreted_fnC2EPNS_17tr_infrastructureINS_15relation_traitsEE10mutator_fnER7obj_refI3app11ast_managerE.exit.thread10, label %22

22:                                               ; preds = %_ZN7obj_refI3app11ast_managerEC2EPS0_RS1_.exit.thread, %_ZN7obj_refI3app11ast_managerEC2EPS0_RS1_.exit
  %23 = invoke noalias noundef ptr @_ZN6memory8allocateEm(i64 noundef 32)
          to label %24 unwind label %41

24:                                               ; preds = %22
  store ptr getelementptr inbounds nuw inrange(-16, 40) (i8, ptr @_ZTVN7datalog21check_relation_plugin21filter_interpreted_fnE, i64 16), ptr %23, align 8, !tbaa !3
  %25 = getelementptr inbounds nuw i8, ptr %23, i64 8
  store ptr %15, ptr %25, align 8, !tbaa !636
  %26 = getelementptr inbounds nuw i8, ptr %23, i64 16
  store ptr %2, ptr %26, align 8, !tbaa !639
  %27 = getelementptr inbounds nuw i8, ptr %23, i64 24
  store ptr %17, ptr %27, align 8, !tbaa !27
  br i1 %.not.i.i, label %_ZN7obj_refI3app11ast_managerED2Ev.exit, label %_ZN7datalog21check_relation_plugin21filter_interpreted_fnC2EPNS_17tr_infrastructureINS_15relation_traitsEE10mutator_fnER7obj_refI3app11ast_managerE.exit.thread8

_ZN7datalog21check_relation_plugin21filter_interpreted_fnC2EPNS_17tr_infrastructureINS_15relation_traitsEE10mutator_fnER7obj_refI3app11ast_managerE.exit.thread8: ; preds = %24
  %28 = getelementptr inbounds nuw i8, ptr %2, i64 8
  %29 = load i32, ptr %28, align 4, !tbaa !37
  %30 = add i32 %29, 1
  store i32 %30, ptr %28, align 4, !tbaa !37
  br label %_ZN7datalog21check_relation_plugin21filter_interpreted_fnC2EPNS_17tr_infrastructureINS_15relation_traitsEE10mutator_fnER7obj_refI3app11ast_managerE.exit.thread10

_ZN7datalog21check_relation_plugin21filter_interpreted_fnC2EPNS_17tr_infrastructureINS_15relation_traitsEE10mutator_fnER7obj_refI3app11ast_managerE.exit.thread10: ; preds = %_ZN7obj_refI3app11ast_managerEC2EPS0_RS1_.exit.thread, %_ZN7datalog21check_relation_plugin21filter_interpreted_fnC2EPNS_17tr_infrastructureINS_15relation_traitsEE10mutator_fnER7obj_refI3app11ast_managerE.exit.thread8
  %31 = phi ptr [ %23, %_ZN7datalog21check_relation_plugin21filter_interpreted_fnC2EPNS_17tr_infrastructureINS_15relation_traitsEE10mutator_fnER7obj_refI3app11ast_managerE.exit.thread8 ], [ null, %_ZN7obj_refI3app11ast_managerEC2EPS0_RS1_.exit.thread ]
  %32 = getelementptr inbounds nuw i8, ptr %2, i64 8
  %33 = load i32, ptr %32, align 4, !tbaa !37
  %34 = add i32 %33, -1
  store i32 %34, ptr %32, align 4, !tbaa !37
  %35 = icmp eq i32 %34, 0
  br i1 %35, label %36, label %_ZN7obj_refI3app11ast_managerED2Ev.exit

36:                                               ; preds = %_ZN7datalog21check_relation_plugin21filter_interpreted_fnC2EPNS_17tr_infrastructureINS_15relation_traitsEE10mutator_fnER7obj_refI3app11ast_managerE.exit.thread10
  invoke void @_ZN11ast_manager11delete_nodeEP3ast(ptr noundef nonnull align 8 dereferenceable(976) %17, ptr noundef nonnull %2)
          to label %_ZN7obj_refI3app11ast_managerED2Ev.exit unwind label %37

37:                                               ; preds = %36
  %38 = landingpad { ptr, i32 }
          catch ptr null
  %39 = extractvalue { ptr, i32 } %38, 0
  tail call void @__clang_call_terminate(ptr %39) #25
  unreachable

_ZN7obj_refI3app11ast_managerED2Ev.exit:          ; preds = %24, %_ZN7obj_refI3app11ast_managerEC2EPS0_RS1_.exit, %_ZN7datalog21check_relation_plugin21filter_interpreted_fnC2EPNS_17tr_infrastructureINS_15relation_traitsEE10mutator_fnER7obj_refI3app11ast_managerE.exit.thread10, %36
  %40 = phi ptr [ %31, %_ZN7datalog21check_relation_plugin21filter_interpreted_fnC2EPNS_17tr_infrastructureINS_15relation_traitsEE10mutator_fnER7obj_refI3app11ast_managerE.exit.thread10 ], [ %31, %36 ], [ null, %_ZN7obj_refI3app11ast_managerEC2EPS0_RS1_.exit ], [ %23, %24 ]
  call void @llvm.lifetime.end.p0(i64 16, ptr nonnull %4) #24
  ret ptr %40

41:                                               ; preds = %22
  %42 = landingpad { ptr, i32 }
          cleanup
  call void @_ZN7obj_refI3app11ast_managerED2Ev(ptr noundef nonnull align 8 dereferenceable(16) %4) #24
  call void @llvm.lifetime.end.p0(i64 16, ptr nonnull %4) #24
  resume { ptr, i32 } %42
}